target datalayout = "e-m:e-p270:32:32-p271:32:32-p272:64:64-i64:64-i128:128-f80:128-n8:16:32:64-S128"
target triple = "x86_64-pc-linux-gnu"

; Function Attrs: inlinehint mustprogress nounwind uwtable
define internal noundef double @_ZN2cvL9normL2SqrIsdEET0_PKT_S4_i(ptr noundef %0, ptr noundef %1, i32 noundef %2) #3 {
  %4 = alloca ptr, align 8
  %5 = alloca ptr, align 8
  %6 = alloca i32, align 4
  %7 = alloca double, align 8
  %8 = alloca i32, align 4
  %9 = alloca double, align 8
  store ptr %0, ptr %4, align 8, !tbaa !13
  store ptr %1, ptr %5, align 8, !tbaa !13
  store i32 %2, ptr %6, align 4, !tbaa !3
  call void @llvm.lifetime.start.p0(i64 8, ptr %7) #15
  store double 0.000000e+00, ptr %7, align 8, !tbaa !47
  call void @llvm.lifetime.start.p0(i64 4, ptr %8) #15
  store i32 0, ptr %8, align 4, !tbaa !3
  br label %10

10:                                               ; preds = %33, %3
  %11 = load i32, ptr %8, align 4, !tbaa !3
  %12 = load i32, ptr %6, align 4, !tbaa !3
  %13 = icmp slt i32 %11, %12
  br i1 %13, label %14, label %36

14:                                               ; preds = %10
  call void @llvm.lifetime.start.p0(i64 8, ptr %9) #15
  %15 = load ptr, ptr %4, align 8, !tbaa !13
  %16 = load i32, ptr %8, align 4, !tbaa !3
  %17 = sext i32 %16 to i64
  %18 = getelementptr inbounds i16, ptr %15, i64 %17
  %19 = load i16, ptr %18, align 2, !tbaa !101
  %20 = sext i16 %19 to i32
  %21 = load ptr, ptr %5, align 8, !tbaa !13
  %22 = load i32, ptr %8, align 4, !tbaa !3
  %23 = sext i32 %22 to i64
  %24 = getelementptr inbounds i16, ptr %21, i64 %23
  %25 = load i16, ptr %24, align 2, !tbaa !101
  %26 = sext i16 %25 to i32
  %27 = sub nsw i32 %20, %26
  %28 = sitofp i32 %27 to double
  store double %28, ptr %9, align 8, !tbaa !47
  %29 = load double, ptr %9, align 8, !tbaa !47
  %30 = load double, ptr %9, align 8, !tbaa !47
  %31 = load double, ptr %7, align 8, !tbaa !47
  %32 = call double @llvm.fmuladd.f64(double %29, double %30, double %31)
  store double %32, ptr %7, align 8, !tbaa !47
  call void @llvm.lifetime.end.p0(i64 8, ptr %9) #15
  br label %33

33:                                               ; preds = %14
  %34 = load i32, ptr %8, align 4, !tbaa !3
  %35 = add nsw i32 %34, 1
  store i32 %35, ptr %8, align 4, !tbaa !3
  br label %10, !llvm.loop !259

36:                                               ; preds = %10
  %37 = load double, ptr %7, align 8, !tbaa !47
  call void @llvm.lifetime.end.p0(i64 4, ptr %8) #15
  call void @llvm.lifetime.end.p0(i64 8, ptr %7) #15
  ret double %37
}

; Function Attrs: mustprogress uwtable
define linkonce_odr hidden noundef i32 @_ZN2cv11normDiffL2_IsdEEiPKT_S3_PKhPT0_ii(ptr noundef %0, ptr noundef %1, ptr noundef %2, ptr noundef %3, i32 noundef %4, i32 noundef %5) #0 comdat {
  %7 = alloca ptr, align 8
  %8 = alloca ptr, align 8
  %9 = alloca ptr, align 8
  %10 = alloca ptr, align 8
  %11 = alloca i32, align 4
  %12 = alloca i32, align 4
  %13 = alloca double, align 8
  %14 = alloca i32, align 4
  %15 = alloca i32, align 4
  %16 = alloca i32, align 4
  %17 = alloca double, align 8
  store ptr %0, ptr %7, align 8, !tbaa !13
  store ptr %1, ptr %8, align 8, !tbaa !13
  store ptr %2, ptr %9, align 8, !tbaa !9
  store ptr %3, ptr %10, align 8, !tbaa !17
  store i32 %4, ptr %11, align 4, !tbaa !3
  store i32 %5, ptr %12, align 4, !tbaa !3
  call void @llvm.lifetime.start.p0(i64 8, ptr %13) #15
  %18 = load ptr, ptr %10, align 8, !tbaa !17
  %19 = load double, ptr %18, align 8, !tbaa !47
  store double %19, ptr %13, align 8, !tbaa !47
  %20 = load ptr, ptr %9, align 8, !tbaa !9
  %21 = icmp ne ptr %20, null
  br i1 %21, label %31, label %22

22:                                               ; preds = %6
  %23 = load ptr, ptr %7, align 8, !tbaa !13
  %24 = load ptr, ptr %8, align 8, !tbaa !13
  %25 = load i32, ptr %11, align 4, !tbaa !3
  %26 = load i32, ptr %12, align 4, !tbaa !3
  %27 = mul nsw i32 %25, %26
  %28 = call noundef double @_ZN2cvL9normL2SqrIsdEET0_PKT_S4_i(ptr noundef %23, ptr noundef %24, i32 noundef %27)
  %29 = load double, ptr %13, align 8, !tbaa !47
  %30 = fadd double %29, %28
  store double %30, ptr %13, align 8, !tbaa !47
  br label %86

31:                                               ; preds = %6
  call void @llvm.lifetime.start.p0(i64 4, ptr %14) #15
  store i32 0, ptr %14, align 4, !tbaa !3
  br label %32

32:                                               ; preds = %74, %31
  %33 = load i32, ptr %14, align 4, !tbaa !3
  %34 = load i32, ptr %11, align 4, !tbaa !3
  %35 = icmp slt i32 %33, %34
  br i1 %35, label %37, label %36

36:                                               ; preds = %32
  store i32 2, ptr %15, align 4
  call void @llvm.lifetime.end.p0(i64 4, ptr %14) #15
  br label %85

37:                                               ; preds = %32
  %38 = load ptr, ptr %9, align 8, !tbaa !9
  %39 = load i32, ptr %14, align 4, !tbaa !3
  %40 = sext i32 %39 to i64
  %41 = getelementptr inbounds i8, ptr %38, i64 %40
  %42 = load i8, ptr %41, align 1, !tbaa !24
  %43 = icmp ne i8 %42, 0
  br i1 %43, label %44, label %73

44:                                               ; preds = %37
  call void @llvm.lifetime.start.p0(i64 4, ptr %16) #15
  store i32 0, ptr %16, align 4, !tbaa !3
  br label %45

45:                                               ; preds = %69, %44
  %46 = load i32, ptr %16, align 4, !tbaa !3
  %47 = load i32, ptr %12, align 4, !tbaa !3
  %48 = icmp slt i32 %46, %47
  br i1 %48, label %50, label %49

49:                                               ; preds = %45
  store i32 5, ptr %15, align 4
  call void @llvm.lifetime.end.p0(i64 4, ptr %16) #15
  br label %72

50:                                               ; preds = %45
  call void @llvm.lifetime.start.p0(i64 8, ptr %17) #15
  %51 = load ptr, ptr %7, align 8, !tbaa !13
  %52 = load i32, ptr %16, align 4, !tbaa !3
  %53 = sext i32 %52 to i64
  %54 = getelementptr inbounds i16, ptr %51, i64 %53
  %55 = load i16, ptr %54, align 2, !tbaa !101
  %56 = sext i16 %55 to i32
  %57 = load ptr, ptr %8, align 8, !tbaa !13
  %58 = load i32, ptr %16, align 4, !tbaa !3
  %59 = sext i32 %58 to i64
  %60 = getelementptr inbounds i16, ptr %57, i64 %59
  %61 = load i16, ptr %60, align 2, !tbaa !101
  %62 = sext i16 %61 to i32
  %63 = sub nsw i32 %56, %62
  %64 = sitofp i32 %63 to double
  store double %64, ptr %17, align 8, !tbaa !47
  %65 = load double, ptr %17, align 8, !tbaa !47
  %66 = load double, ptr %17, align 8, !tbaa !47
  %67 = load double, ptr %13, align 8, !tbaa !47
  %68 = call double @llvm.fmuladd.f64(double %65, double %66, double %67)
  store double %68, ptr %13, align 8, !tbaa !47
  call void @llvm.lifetime.end.p0(i64 8, ptr %17) #15
  br label %69

69:                                               ; preds = %50
  %70 = load i32, ptr %16, align 4, !tbaa !3
  %71 = add nsw i32 %70, 1
  store i32 %71, ptr %16, align 4, !tbaa !3
  br label %45, !llvm.loop !257

72:                                               ; preds = %49
  br label %73

73:                                               ; preds = %72, %37
  br label %74

74:                                               ; preds = %73
  %75 = load i32, ptr %14, align 4, !tbaa !3
  %76 = add nsw i32 %75, 1
  store i32 %76, ptr %14, align 4, !tbaa !3
  %77 = load i32, ptr %12, align 4, !tbaa !3
  %78 = load ptr, ptr %7, align 8, !tbaa !13
  %79 = sext i32 %77 to i64
  %80 = getelementptr inbounds i16, ptr %78, i64 %79
  store ptr %80, ptr %7, align 8, !tbaa !13
  %81 = load i32, ptr %12, align 4, !tbaa !3
  %82 = load ptr, ptr %8, align 8, !tbaa !13
  %83 = sext i32 %81 to i64
  %84 = getelementptr inbounds i16, ptr %82, i64 %83
  store ptr %84, ptr %8, align 8, !tbaa !13
  br label %32, !llvm.loop !258

85:                                               ; preds = %36
  br label %86

86:                                               ; preds = %85, %22
  %87 = load double, ptr %13, align 8, !tbaa !47
  %88 = load ptr, ptr %10, align 8, !tbaa !17
  store double %87, ptr %88, align 8, !tbaa !47
  store i32 1, ptr %15, align 4
  call void @llvm.lifetime.end.p0(i64 8, ptr %13) #15
  ret i32 0
}

; Function Attrs: mustprogress uwtable
define internal noundef i32 @_ZN2cvL14normDiffL2_16sEPKsS1_PKhPdii(ptr noundef %0, ptr noundef %1, ptr noundef %2, ptr noundef %3, i32 noundef %4, i32 noundef %5) #0 {
  %7 = alloca ptr, align 8
  %8 = alloca ptr, align 8
  %9 = alloca ptr, align 8
  %10 = alloca ptr, align 8
  %11 = alloca i32, align 4
  %12 = alloca i32, align 4
  store ptr %0, ptr %7, align 8, !tbaa !13
  store ptr %1, ptr %8, align 8, !tbaa !13
  store ptr %2, ptr %9, align 8, !tbaa !9
  store ptr %3, ptr %10, align 8, !tbaa !17
  store i32 %4, ptr %11, align 4, !tbaa !3
  store i32 %5, ptr %12, align 4, !tbaa !3
  %13 = load ptr, ptr %7, align 8, !tbaa !13
  %14 = load ptr, ptr %8, align 8, !tbaa !13
  %15 = load ptr, ptr %9, align 8, !tbaa !9
  %16 = load ptr, ptr %10, align 8, !tbaa !17
  %17 = load i32, ptr %11, align 4, !tbaa !3
  %18 = load i32, ptr %12, align 4, !tbaa !3
  %19 = call noundef i32 @_ZN2cv11normDiffL2_IsdEEiPKT_S3_PKhPT0_ii(ptr noundef %13, ptr noundef %14, ptr noundef %15, ptr noundef %16, i32 noundef %17, i32 noundef %18)
  ret i32 %19
}